---
triple:          'arm64-apple-darwin'
binary-path:     trader
relocations:
  - { offsetInCU: 0x2E2A, offset: 0x2E2A, size: 0x8, addend: 0x0, symName: __ZNSt3__124__put_character_sequenceB7v160006IcNS_11char_traitsIcEEEERNS_13basic_ostreamIT_T0_EES7_PKS4_m, symObjAddr: 0x21A0, symBinAddr: 0x1000047C4, symSize: 0x1F4 }
  - { offsetInCU: 0x64F8, offset: 0x64F8, size: 0x8, addend: 0x0, symName: __ZNSt3__1eqB7v160006INS_9allocatorIcEEEEbRKNS_12basic_stringIcNS_11char_traitsIcEET_EES9_, symObjAddr: 0x1804, symBinAddr: 0x100003E28, symSize: 0x148 }
  - { offsetInCU: 0x656B, offset: 0x656B, size: 0x8, addend: 0x0, symName: __ZNSt3__1eqB7v160006IcNS_11char_traitsIcEENS_9allocatorIcEEEEbRKNS_12basic_stringIT_T0_T1_EEPKS6_, symObjAddr: 0x1978, symBinAddr: 0x100003F9C, symSize: 0xC0 }
  - { offsetInCU: 0x65D2, offset: 0x65D2, size: 0x8, addend: 0x0, symName: __ZNSt3__1lsB7v160006INS_11char_traitsIcEEEERNS_13basic_ostreamIcT_EES6_PKc, symObjAddr: 0x1A38, symBinAddr: 0x10000405C, symSize: 0x48 }
  - { offsetInCU: 0x6618, offset: 0x6618, size: 0x8, addend: 0x0, symName: __ZNSt3__14endlB7v160006IcNS_11char_traitsIcEEEERNS_13basic_ostreamIT_T0_EES7_, symObjAddr: 0x1AAC, symBinAddr: 0x1000040D0, symSize: 0x58 }
  - { offsetInCU: 0x6658, offset: 0x6658, size: 0x8, addend: 0x0, symName: __ZNSt3__1lsB7v160006IcNS_11char_traitsIcEENS_9allocatorIcEEEERNS_13basic_ostreamIT_T0_EES9_RKNS_12basic_stringIS6_S7_T1_EE, symObjAddr: 0x1B04, symBinAddr: 0x100004128, symSize: 0x4C }
  - { offsetInCU: 0x66B0, offset: 0x66B0, size: 0x8, addend: 0x0, symName: __ZNSt3__119__debug_db_insert_cB7v160006INS_12basic_stringIcNS_11char_traitsIcEENS_9allocatorIcEEEEEEvPT_, symObjAddr: 0x1F74, symBinAddr: 0x100004598, symSize: 0x10 }
  - { offsetInCU: 0x66E1, offset: 0x66E1, size: 0x8, addend: 0x0, symName: __ZNSt3__118__constexpr_strlenB7v160006EPKc, symObjAddr: 0x2040, symBinAddr: 0x100004664, symSize: 0x24 }
  - { offsetInCU: 0x670D, offset: 0x670D, size: 0x8, addend: 0x0, symName: __ZNSt3__116__pad_and_outputB7v160006IcNS_11char_traitsIcEEEENS_19ostreambuf_iteratorIT_T0_EES6_PKS4_S8_S8_RNS_8ios_baseES4_, symObjAddr: 0x23B0, symBinAddr: 0x1000049D4, symSize: 0x248 }
  - { offsetInCU: 0x67DC, offset: 0x67DC, size: 0x8, addend: 0x0, symName: __ZNSt3__112__to_addressB7v160006IKcEEPT_S3_, symObjAddr: 0x2830, symBinAddr: 0x100004E54, symSize: 0x14 }
  - { offsetInCU: 0x6811, offset: 0x6811, size: 0x8, addend: 0x0, symName: __ZNSt3__130__libcpp_is_constant_evaluatedB7v160006Ev, symObjAddr: 0x295C, symBinAddr: 0x100004F80, symSize: 0xC }
  - { offsetInCU: 0x6861, offset: 0x6861, size: 0x8, addend: 0x0, symName: __ZNSt3__19use_facetB7v160006INS_5ctypeIcEEEERKT_RKNS_6localeE, symObjAddr: 0x2B14, symBinAddr: 0x100005138, symSize: 0x2C }
  - { offsetInCU: 0x6D30, offset: 0x6D30, size: 0x8, addend: 0x0, symName: __ZNSt3__119__debug_db_insert_cB7v160006INS_6vectorI10stock_dataNS_9allocatorIS2_EEEEEEvPT_, symObjAddr: 0x2C90, symBinAddr: 0x1000052B4, symSize: 0x10 }
  - { offsetInCU: 0x6D61, offset: 0x6D61, size: 0x8, addend: 0x0, symName: __ZNSt3__118__debug_db_erase_cB7v160006INS_6vectorI10stock_dataNS_9allocatorIS2_EEEEEEvPT_, symObjAddr: 0x2F68, symBinAddr: 0x10000558C, symSize: 0x10 }
  - { offsetInCU: 0x6D92, offset: 0x6D92, size: 0x8, addend: 0x0, symName: __ZNSt3__112__to_addressB7v160006I10stock_dataEEPT_S3_, symObjAddr: 0x3084, symBinAddr: 0x1000056A8, symSize: 0x14 }
  - { offsetInCU: 0x6DC7, offset: 0x6DC7, size: 0x8, addend: 0x0, symName: __ZNSt3__119__libcpp_deallocateB7v160006EPvmm, symObjAddr: 0x3200, symBinAddr: 0x100005824, symSize: 0x30 }
  - { offsetInCU: 0x6E0F, offset: 0x6E0F, size: 0x8, addend: 0x0, symName: __ZNSt3__127__do_deallocate_handle_sizeB7v160006IJEEEvPvmDpT_, symObjAddr: 0x3230, symBinAddr: 0x100005854, symSize: 0x28 }
  - { offsetInCU: 0x6E4D, offset: 0x6E4D, size: 0x8, addend: 0x0, symName: __ZNSt3__124__libcpp_operator_deleteB7v160006IJPvEEEvDpT_, symObjAddr: 0x3258, symBinAddr: 0x10000587C, symSize: 0x24 }
  - { offsetInCU: 0x6E82, offset: 0x6E82, size: 0x8, addend: 0x0, symName: __ZNSt3__117__libcpp_allocateB7v160006Emm, symObjAddr: 0x3718, symBinAddr: 0x100005D3C, symSize: 0x28 }
  - { offsetInCU: 0x6EBF, offset: 0x6EBF, size: 0x8, addend: 0x0, symName: __ZNSt3__121__libcpp_operator_newB7v160006IJmEEEPvDpT_, symObjAddr: 0x3754, symBinAddr: 0x100005D78, symSize: 0x24 }
  - { offsetInCU: 0x6F2B, offset: 0x6F2B, size: 0x8, addend: 0x0, symName: __ZNSt3__118__constexpr_memcmpB7v160006IcEEiPKT_S3_m, symObjAddr: 0x38E8, symBinAddr: 0x100005F0C, symSize: 0x34 }
  - { offsetInCU: 0x6F7C, offset: 0x6F7C, size: 0x8, addend: 0x0, symName: __ZNSt3__13maxB7v160006ImEERKT_S3_S3_, symObjAddr: 0x3FF4, symBinAddr: 0x100006618, symSize: 0x2C }
  - { offsetInCU: 0x6FBF, offset: 0x6FBF, size: 0x8, addend: 0x0, symName: __ZNSt3__13minB7v160006ImEERKT_S3_S3_, symObjAddr: 0x4020, symBinAddr: 0x100006644, symSize: 0x2C }
  - { offsetInCU: 0x7203, offset: 0x7203, size: 0x8, addend: 0x0, symName: __ZNSt3__13minB7v160006ImNS_6__lessImmEEEERKT_S5_S5_T0_, symObjAddr: 0x40AC, symBinAddr: 0x1000066D0, symSize: 0x54 }
  - { offsetInCU: 0x7298, offset: 0x7298, size: 0x8, addend: 0x0, symName: __ZNSt3__120__throw_length_errorB7v160006EPKc, symObjAddr: 0x4194, symBinAddr: 0x1000067B8, symSize: 0x64 }
  - { offsetInCU: 0x72C0, offset: 0x72C0, size: 0x8, addend: 0x0, symName: __ZNSt3__13maxB7v160006ImNS_6__lessImmEEEERKT_S5_S5_T0_, symObjAddr: 0x4278, symBinAddr: 0x10000689C, symSize: 0x54 }
  - { offsetInCU: 0x731A, offset: 0x731A, size: 0x8, addend: 0x0, symName: __ZNSt3__119__allocate_at_leastB7v160006INS_9allocatorI10stock_dataEEEENS_19__allocation_resultINS_16allocator_traitsIT_E7pointerEEERS6_m, symObjAddr: 0x43E8, symBinAddr: 0x100006A0C, symSize: 0x40 }
  - { offsetInCU: 0x735D, offset: 0x735D, size: 0x8, addend: 0x0, symName: __ZNSt3__142__uninitialized_allocator_move_if_noexceptB7v160006INS_9allocatorI10stock_dataEENS_16reverse_iteratorIPS2_EES6_S6_EET2_RT_T0_T1_S7_, symObjAddr: 0x45D0, symBinAddr: 0x100006BF4, symSize: 0x134 }
  - { offsetInCU: 0x73FD, offset: 0x73FD, size: 0x8, addend: 0x0, symName: __ZNSt3__14swapB7v160006IP10stock_dataEEvRT_S4_, symObjAddr: 0x4750, symBinAddr: 0x100006D74, symSize: 0x3C }
  - { offsetInCU: 0x744E, offset: 0x744E, size: 0x8, addend: 0x0, symName: __ZNSt3__125__debug_db_invalidate_allB7v160006INS_6vectorI10stock_dataNS_9allocatorIS2_EEEEEEvPT_, symObjAddr: 0x4854, symBinAddr: 0x100006E78, symSize: 0x10 }
  - { offsetInCU: 0x747F, offset: 0x747F, size: 0x8, addend: 0x0, symName: __ZNSt3__122__make_exception_guardB7v160006INS_29_AllocatorDestroyRangeReverseINS_9allocatorI10stock_dataEENS_16reverse_iteratorIPS3_EEEEEENS_28__exception_guard_exceptionsIT_EESA_, symObjAddr: 0x4864, symBinAddr: 0x100006E88, symSize: 0x4C }
  - { offsetInCU: 0x74B5, offset: 0x74B5, size: 0x8, addend: 0x0, symName: __ZNSt3__1neB7v160006IP10stock_dataS2_EEbRKNS_16reverse_iteratorIT_EERKNS3_IT0_EE, symObjAddr: 0x48F4, symBinAddr: 0x100006F18, symSize: 0x48 }
  - { offsetInCU: 0x7501, offset: 0x7501, size: 0x8, addend: 0x0, symName: __ZNSt3__112__to_addressB7v160006INS_16reverse_iteratorIP10stock_dataEEvEENS_5decayIDTclsr19__to_address_helperIT_EE6__callclsr3stdE7declvalIRKS6_EEEEE4typeES8_, symObjAddr: 0x493C, symBinAddr: 0x100006F60, symSize: 0x24 }
  - { offsetInCU: 0x7560, offset: 0x7560, size: 0x8, addend: 0x0, symName: __ZNSt3__119__allocator_destroyB7v160006INS_9allocatorI10stock_dataEENS_16reverse_iteratorINS4_IPS2_EEEES7_EEvRT_T0_T1_, symObjAddr: 0x4BF8, symBinAddr: 0x10000721C, symSize: 0x70 }
  - { offsetInCU: 0x75C5, offset: 0x75C5, size: 0x8, addend: 0x0, symName: __ZNSt3__1neB7v160006INS_16reverse_iteratorIP10stock_dataEES4_EEbRKNS1_IT_EERKNS1_IT0_EE, symObjAddr: 0x4CA4, symBinAddr: 0x1000072C8, symSize: 0x60 }
  - { offsetInCU: 0x7611, offset: 0x7611, size: 0x8, addend: 0x0, symName: __ZNSt3__112__to_addressB7v160006INS_16reverse_iteratorINS1_IP10stock_dataEEEEvEENS_5decayIDTclsr19__to_address_helperIT_EE6__callclsr3stdE7declvalIRKS7_EEEEE4typeES9_, symObjAddr: 0x4D04, symBinAddr: 0x100007328, symSize: 0x24 }
  - { offsetInCU: 0x781D, offset: 0x781D, size: 0x8, addend: 0x0, symName: __ZSt28__throw_bad_array_new_lengthB7v160006v, symObjAddr: 0x36E4, symBinAddr: 0x100005D08, symSize: 0x34 }
  - { offsetInCU: 0x7E51, offset: 0x7E51, size: 0x8, addend: 0x0, symName: __ZNSt3__16vectorI10stock_dataNS_9allocatorIS1_EEE26__swap_out_circular_bufferERNS_14__split_bufferIS1_RS3_EE, symObjAddr: 0x3E20, symBinAddr: 0x100006444, symSize: 0x118 }
  - { offsetInCU: 0xA20F, offset: 0xA20F, size: 0x8, addend: 0x0, symName: __Z21initialize_stock_dataR10stock_data, symObjAddr: 0x0, symBinAddr: 0x100002624, symSize: 0x50 }
  - { offsetInCU: 0xA238, offset: 0xA238, size: 0x8, addend: 0x0, symName: __ZNSt3__112basic_stringIcNS_11char_traitsIcEENS_9allocatorIcEEEaSB7v160006EPKc, symObjAddr: 0x50, symBinAddr: 0x100002674, symSize: 0x2C }
  - { offsetInCU: 0xA26C, offset: 0xA26C, size: 0x8, addend: 0x0, symName: _main, symObjAddr: 0x7C, symBinAddr: 0x1000026A0, symSize: 0x1518 }
  - { offsetInCU: 0xA3CD, offset: 0xA3CD, size: 0x8, addend: 0x0, symName: __ZN8ReceiverC1Ev, symObjAddr: 0x1594, symBinAddr: 0x100003BB8, symSize: 0x2C }
  - { offsetInCU: 0xA3F6, offset: 0xA3F6, size: 0x8, addend: 0x0, symName: __ZN8Receiver7readIMLEv, symObjAddr: 0x15C0, symBinAddr: 0x100003BE4, symSize: 0x108 }
  - { offsetInCU: 0xA42A, offset: 0xA42A, size: 0x8, addend: 0x0, symName: __ZNKSt3__112basic_stringIcNS_11char_traitsIcEENS_9allocatorIcEEE4sizeB7v160006Ev, symObjAddr: 0x16C8, symBinAddr: 0x100003CEC, symSize: 0x54 }
  - { offsetInCU: 0xA44F, offset: 0xA44F, size: 0x8, addend: 0x0, symName: __ZNSt3__16vectorI10stock_dataNS_9allocatorIS1_EEEC1B7v160006Ev, symObjAddr: 0x171C, symBinAddr: 0x100003D40, symSize: 0x2C }
  - { offsetInCU: 0xA47D, offset: 0xA47D, size: 0x8, addend: 0x0, symName: __ZN10stock_dataC1Ev, symObjAddr: 0x1748, symBinAddr: 0x100003D6C, symSize: 0x2C }
  - { offsetInCU: 0xA4A8, offset: 0xA4A8, size: 0x8, addend: 0x0, symName: __ZNSt3__112basic_stringIcNS_11char_traitsIcEENS_9allocatorIcEEEC1B7v160006Ev, symObjAddr: 0x1774, symBinAddr: 0x100003D98, symSize: 0x2C }
  - { offsetInCU: 0xA4D1, offset: 0xA4D1, size: 0x8, addend: 0x0, symName: __ZNSt3__112basic_stringIcNS_11char_traitsIcEENS_9allocatorIcEEEixB7v160006Em, symObjAddr: 0x17AC, symBinAddr: 0x100003DD0, symSize: 0x30 }
  - { offsetInCU: 0xA505, offset: 0xA505, size: 0x8, addend: 0x0, symName: __ZNKSt3__16vectorI10stock_dataNS_9allocatorIS1_EEE4sizeB7v160006Ev, symObjAddr: 0x17DC, symBinAddr: 0x100003E00, symSize: 0x28 }
  - { offsetInCU: 0xA52A, offset: 0xA52A, size: 0x8, addend: 0x0, symName: __ZNSt3__16vectorI10stock_dataNS_9allocatorIS1_EEEixB7v160006Em, symObjAddr: 0x194C, symBinAddr: 0x100003F70, symSize: 0x2C }
  - { offsetInCU: 0xA560, offset: 0xA560, size: 0x8, addend: 0x0, symName: __ZNSt3__113basic_ostreamIcNS_11char_traitsIcEEElsB7v160006EPFRS3_S4_E, symObjAddr: 0x1A80, symBinAddr: 0x1000040A4, symSize: 0x2C }
  - { offsetInCU: 0xA592, offset: 0xA592, size: 0x8, addend: 0x0, symName: __ZNSt3__16vectorI10stock_dataNS_9allocatorIS1_EEE9push_backB7v160006ERKS1_, symObjAddr: 0x1B50, symBinAddr: 0x100004174, symSize: 0x6C }
  - { offsetInCU: 0xA5C8, offset: 0xA5C8, size: 0x8, addend: 0x0, symName: __ZNSt3__112basic_stringIcNS_11char_traitsIcEENS_9allocatorIcEEEpLB7v160006Ec, symObjAddr: 0x1BBC, symBinAddr: 0x1000041E0, symSize: 0x34 }
  - { offsetInCU: 0xA5FC, offset: 0xA5FC, size: 0x8, addend: 0x0, symName: __ZN10stock_dataD1Ev, symObjAddr: 0x1BF0, symBinAddr: 0x100004214, symSize: 0x2C }
  - { offsetInCU: 0xA627, offset: 0xA627, size: 0x8, addend: 0x0, symName: __ZNSt3__16vectorI10stock_dataNS_9allocatorIS1_EEED1B7v160006Ev, symObjAddr: 0x1C1C, symBinAddr: 0x100004240, symSize: 0x2C }
  - { offsetInCU: 0xA650, offset: 0xA650, size: 0x8, addend: 0x0, symName: __ZN8ReceiverC2Ev, symObjAddr: 0x1C48, symBinAddr: 0x10000426C, symSize: 0x1F0 }
  - { offsetInCU: 0xA679, offset: 0xA679, size: 0x8, addend: 0x0, symName: __ZL12_OSSwapInt16t, symObjAddr: 0x1E38, symBinAddr: 0x10000445C, symSize: 0x24 }
  - { offsetInCU: 0xA6AB, offset: 0xA6AB, size: 0x8, addend: 0x0, symName: __ZNSt3__112basic_stringIcNS_11char_traitsIcEENS_9allocatorIcEEEC1B7v160006IDnEEPKc, symObjAddr: 0x1E5C, symBinAddr: 0x100004480, symSize: 0x34 }
  - { offsetInCU: 0xA6E8, offset: 0xA6E8, size: 0x8, addend: 0x0, symName: __ZNSt3__112basic_stringIcNS_11char_traitsIcEENS_9allocatorIcEEEC2B7v160006IDnEEPKc, symObjAddr: 0x1E90, symBinAddr: 0x1000044B4, symSize: 0x60 }
  - { offsetInCU: 0xA72A, offset: 0xA72A, size: 0x8, addend: 0x0, symName: __ZNSt3__117__compressed_pairINS_12basic_stringIcNS_11char_traitsIcEENS_9allocatorIcEEE5__repES5_EC1B7v160006INS_18__default_init_tagESA_EEOT_OT0_, symObjAddr: 0x1EF0, symBinAddr: 0x100004514, symSize: 0x3C }
  - { offsetInCU: 0xA781, offset: 0xA781, size: 0x8, addend: 0x0, symName: __ZNSt3__111char_traitsIcE6lengthEPKc, symObjAddr: 0x1F2C, symBinAddr: 0x100004550, symSize: 0x48 }
  - { offsetInCU: 0xA7A4, offset: 0xA7A4, size: 0x8, addend: 0x0, symName: __ZNSt3__117__compressed_pairINS_12basic_stringIcNS_11char_traitsIcEENS_9allocatorIcEEE5__repES5_EC2B7v160006INS_18__default_init_tagESA_EEOT_OT0_, symObjAddr: 0x1F84, symBinAddr: 0x1000045A8, symSize: 0x3C }
  - { offsetInCU: 0xA7FB, offset: 0xA7FB, size: 0x8, addend: 0x0, symName: __ZNSt3__122__compressed_pair_elemINS_12basic_stringIcNS_11char_traitsIcEENS_9allocatorIcEEE5__repELi0ELb0EEC2B7v160006ENS_18__default_init_tagE, symObjAddr: 0x1FC0, symBinAddr: 0x1000045E4, symSize: 0x14 }
  - { offsetInCU: 0xA82F, offset: 0xA82F, size: 0x8, addend: 0x0, symName: __ZNSt3__122__compressed_pair_elemINS_9allocatorIcEELi1ELb1EEC2B7v160006ENS_18__default_init_tagE, symObjAddr: 0x1FD4, symBinAddr: 0x1000045F8, symSize: 0x2C }
  - { offsetInCU: 0xA863, offset: 0xA863, size: 0x8, addend: 0x0, symName: __ZNSt3__19allocatorIcEC2B7v160006Ev, symObjAddr: 0x2000, symBinAddr: 0x100004624, symSize: 0x2C }
  - { offsetInCU: 0xA88C, offset: 0xA88C, size: 0x8, addend: 0x0, symName: __ZNSt3__116__non_trivial_ifILb1ENS_9allocatorIcEEEC2B7v160006Ev, symObjAddr: 0x202C, symBinAddr: 0x100004650, symSize: 0x14 }
  - { offsetInCU: 0xA8B5, offset: 0xA8B5, size: 0x8, addend: 0x0, symName: __ZN10stock_dataC2Ev, symObjAddr: 0x2064, symBinAddr: 0x100004688, symSize: 0xA4 }
  - { offsetInCU: 0xA8E0, offset: 0xA8E0, size: 0x8, addend: 0x0, symName: __ZN10stock_dataD2Ev, symObjAddr: 0x2108, symBinAddr: 0x10000472C, symSize: 0x98 }
  - { offsetInCU: 0xA929, offset: 0xA929, size: 0x8, addend: 0x0, symName: __ZNKSt3__113basic_ostreamIcNS_11char_traitsIcEEE6sentrycvbB7v160006Ev, symObjAddr: 0x2394, symBinAddr: 0x1000049B8, symSize: 0x1C }
  - { offsetInCU: 0xA94E, offset: 0xA94E, size: 0x8, addend: 0x0, symName: __ZNSt3__119ostreambuf_iteratorIcNS_11char_traitsIcEEEC1B7v160006ERNS_13basic_ostreamIcS2_EE, symObjAddr: 0x25F8, symBinAddr: 0x100004C1C, symSize: 0x34 }
  - { offsetInCU: 0xA985, offset: 0xA985, size: 0x8, addend: 0x0, symName: __ZNKSt3__18ios_base5flagsB7v160006Ev, symObjAddr: 0x262C, symBinAddr: 0x100004C50, symSize: 0x18 }
  - { offsetInCU: 0xA9AB, offset: 0xA9AB, size: 0x8, addend: 0x0, symName: __ZNKSt3__19basic_iosIcNS_11char_traitsIcEEE4fillB7v160006Ev, symObjAddr: 0x2644, symBinAddr: 0x100004C68, symSize: 0x64 }
  - { offsetInCU: 0xA9D2, offset: 0xA9D2, size: 0x8, addend: 0x0, symName: __ZNKSt3__119ostreambuf_iteratorIcNS_11char_traitsIcEEE6failedB7v160006Ev, symObjAddr: 0x26A8, symBinAddr: 0x100004CCC, symSize: 0x24 }
  - { offsetInCU: 0xA9F7, offset: 0xA9F7, size: 0x8, addend: 0x0, symName: __ZNSt3__19basic_iosIcNS_11char_traitsIcEEE8setstateB7v160006Ej, symObjAddr: 0x26CC, symBinAddr: 0x100004CF0, symSize: 0x2C }
  - { offsetInCU: 0xAA2B, offset: 0xAA2B, size: 0x8, addend: 0x0, symName: __ZNKSt3__18ios_base5widthB7v160006Ev, symObjAddr: 0x26F8, symBinAddr: 0x100004D1C, symSize: 0x18 }
  - { offsetInCU: 0xAA52, offset: 0xAA52, size: 0x8, addend: 0x0, symName: __ZNSt3__115basic_streambufIcNS_11char_traitsIcEEE5sputnB7v160006EPKcl, symObjAddr: 0x2710, symBinAddr: 0x100004D34, symSize: 0x3C }
  - { offsetInCU: 0xAA93, offset: 0xAA93, size: 0x8, addend: 0x0, symName: __ZNSt3__112basic_stringIcNS_11char_traitsIcEENS_9allocatorIcEEEC1B7v160006Emc, symObjAddr: 0x274C, symBinAddr: 0x100004D70, symSize: 0x3C }
  - { offsetInCU: 0xAADA, offset: 0xAADA, size: 0x8, addend: 0x0, symName: __ZNKSt3__112basic_stringIcNS_11char_traitsIcEENS_9allocatorIcEEE4dataB7v160006Ev, symObjAddr: 0x2788, symBinAddr: 0x100004DAC, symSize: 0x28 }
  - { offsetInCU: 0xAAFF, offset: 0xAAFF, size: 0x8, addend: 0x0, symName: __ZNSt3__18ios_base5widthB7v160006El, symObjAddr: 0x27B0, symBinAddr: 0x100004DD4, symSize: 0x2C }
  - { offsetInCU: 0xAB44, offset: 0xAB44, size: 0x8, addend: 0x0, symName: __ZNSt3__112basic_stringIcNS_11char_traitsIcEENS_9allocatorIcEEEC2B7v160006Emc, symObjAddr: 0x27DC, symBinAddr: 0x100004E00, symSize: 0x54 }
  - { offsetInCU: 0xAB8B, offset: 0xAB8B, size: 0x8, addend: 0x0, symName: __ZNKSt3__112basic_stringIcNS_11char_traitsIcEENS_9allocatorIcEEE13__get_pointerB7v160006Ev, symObjAddr: 0x2844, symBinAddr: 0x100004E68, symSize: 0x54 }
  - { offsetInCU: 0xABB0, offset: 0xABB0, size: 0x8, addend: 0x0, symName: __ZNKSt3__112basic_stringIcNS_11char_traitsIcEENS_9allocatorIcEEE9__is_longB7v160006Ev, symObjAddr: 0x2898, symBinAddr: 0x100004EBC, symSize: 0x74 }
  - { offsetInCU: 0xABD5, offset: 0xABD5, size: 0x8, addend: 0x0, symName: __ZNKSt3__112basic_stringIcNS_11char_traitsIcEENS_9allocatorIcEEE18__get_long_pointerB7v160006Ev, symObjAddr: 0x290C, symBinAddr: 0x100004F30, symSize: 0x28 }
  - { offsetInCU: 0xABFA, offset: 0xABFA, size: 0x8, addend: 0x0, symName: __ZNKSt3__112basic_stringIcNS_11char_traitsIcEENS_9allocatorIcEEE19__get_short_pointerB7v160006Ev, symObjAddr: 0x2934, symBinAddr: 0x100004F58, symSize: 0x28 }
  - { offsetInCU: 0xAC1F, offset: 0xAC1F, size: 0x8, addend: 0x0, symName: __ZNKSt3__117__compressed_pairINS_12basic_stringIcNS_11char_traitsIcEENS_9allocatorIcEEE5__repES5_E5firstB7v160006Ev, symObjAddr: 0x2968, symBinAddr: 0x100004F8C, symSize: 0x24 }
  - { offsetInCU: 0xAC44, offset: 0xAC44, size: 0x8, addend: 0x0, symName: __ZNKSt3__122__compressed_pair_elemINS_12basic_stringIcNS_11char_traitsIcEENS_9allocatorIcEEE5__repELi0ELb0EE5__getB7v160006Ev, symObjAddr: 0x298C, symBinAddr: 0x100004FB0, symSize: 0x14 }
  - { offsetInCU: 0xAC69, offset: 0xAC69, size: 0x8, addend: 0x0, symName: __ZNSt3__114pointer_traitsIPKcE10pointer_toB7v160006ERS1_, symObjAddr: 0x29A0, symBinAddr: 0x100004FC4, symSize: 0x14 }
  - { offsetInCU: 0xAC8C, offset: 0xAC8C, size: 0x8, addend: 0x0, symName: __ZNSt3__119ostreambuf_iteratorIcNS_11char_traitsIcEEEC2B7v160006ERNS_13basic_ostreamIcS2_EE, symObjAddr: 0x29B4, symBinAddr: 0x100004FD8, symSize: 0x68 }
  - { offsetInCU: 0xACC2, offset: 0xACC2, size: 0x8, addend: 0x0, symName: __ZNKSt3__19basic_iosIcNS_11char_traitsIcEEE5rdbufB7v160006Ev, symObjAddr: 0x2A1C, symBinAddr: 0x100005040, symSize: 0x24 }
  - { offsetInCU: 0xACE9, offset: 0xACE9, size: 0x8, addend: 0x0, symName: __ZNKSt3__18ios_base5rdbufB7v160006Ev, symObjAddr: 0x2A40, symBinAddr: 0x100005064, symSize: 0x18 }
  - { offsetInCU: 0xAD0E, offset: 0xAD0E, size: 0x8, addend: 0x0, symName: __ZNSt3__111char_traitsIcE11eq_int_typeEii, symObjAddr: 0x2A58, symBinAddr: 0x10000507C, symSize: 0x28 }
  - { offsetInCU: 0xAD3F, offset: 0xAD3F, size: 0x8, addend: 0x0, symName: __ZNSt3__111char_traitsIcE3eofEv, symObjAddr: 0x2A80, symBinAddr: 0x1000050A4, symSize: 0x8 }
  - { offsetInCU: 0xAD52, offset: 0xAD52, size: 0x8, addend: 0x0, symName: __ZNKSt3__19basic_iosIcNS_11char_traitsIcEEE5widenB7v160006Ec, symObjAddr: 0x2A88, symBinAddr: 0x1000050AC, symSize: 0x8C }
  - { offsetInCU: 0xADBF, offset: 0xADBF, size: 0x8, addend: 0x0, symName: __ZNKSt3__15ctypeIcE5widenB7v160006Ec, symObjAddr: 0x2B40, symBinAddr: 0x100005164, symSize: 0x38 }
  - { offsetInCU: 0xADF2, offset: 0xADF2, size: 0x8, addend: 0x0, symName: __ZNSt3__18ios_base8setstateB7v160006Ej, symObjAddr: 0x2B78, symBinAddr: 0x10000519C, symSize: 0x34 }
  - { offsetInCU: 0xAE28, offset: 0xAE28, size: 0x8, addend: 0x0, symName: __ZNKSt3__112basic_stringIcNS_11char_traitsIcEENS_9allocatorIcEEE15__get_long_sizeB7v160006Ev, symObjAddr: 0x2BAC, symBinAddr: 0x1000051D0, symSize: 0x28 }
  - { offsetInCU: 0xAE4D, offset: 0xAE4D, size: 0x8, addend: 0x0, symName: __ZNKSt3__112basic_stringIcNS_11char_traitsIcEENS_9allocatorIcEEE16__get_short_sizeB7v160006Ev, symObjAddr: 0x2BD4, symBinAddr: 0x1000051F8, symSize: 0x34 }
  - { offsetInCU: 0xAE72, offset: 0xAE72, size: 0x8, addend: 0x0, symName: __ZNSt3__16vectorI10stock_dataNS_9allocatorIS1_EEEC2B7v160006Ev, symObjAddr: 0x2C08, symBinAddr: 0x10000522C, symSize: 0x4C }
  - { offsetInCU: 0xAEA0, offset: 0xAEA0, size: 0x8, addend: 0x0, symName: __ZNSt3__117__compressed_pairIP10stock_dataNS_9allocatorIS1_EEEC1B7v160006IDnNS_18__default_init_tagEEEOT_OT0_, symObjAddr: 0x2C54, symBinAddr: 0x100005278, symSize: 0x3C }
  - { offsetInCU: 0xAEF7, offset: 0xAEF7, size: 0x8, addend: 0x0, symName: __ZNSt3__117__compressed_pairIP10stock_dataNS_9allocatorIS1_EEEC2B7v160006IDnNS_18__default_init_tagEEEOT_OT0_, symObjAddr: 0x2CA0, symBinAddr: 0x1000052C4, symSize: 0x40 }
  - { offsetInCU: 0xAF4E, offset: 0xAF4E, size: 0x8, addend: 0x0, symName: __ZNSt3__122__compressed_pair_elemIP10stock_dataLi0ELb0EEC2B7v160006IDnvEEOT_, symObjAddr: 0x2CE0, symBinAddr: 0x100005304, symSize: 0x1C }
  - { offsetInCU: 0xAF8F, offset: 0xAF8F, size: 0x8, addend: 0x0, symName: __ZNSt3__122__compressed_pair_elemINS_9allocatorI10stock_dataEELi1ELb1EEC2B7v160006ENS_18__default_init_tagE, symObjAddr: 0x2CFC, symBinAddr: 0x100005320, symSize: 0x2C }
  - { offsetInCU: 0xAFC3, offset: 0xAFC3, size: 0x8, addend: 0x0, symName: __ZNSt3__19allocatorI10stock_dataEC2B7v160006Ev, symObjAddr: 0x2D28, symBinAddr: 0x10000534C, symSize: 0x2C }
  - { offsetInCU: 0xAFEC, offset: 0xAFEC, size: 0x8, addend: 0x0, symName: __ZNSt3__116__non_trivial_ifILb1ENS_9allocatorI10stock_dataEEEC2B7v160006Ev, symObjAddr: 0x2D54, symBinAddr: 0x100005378, symSize: 0x14 }
  - { offsetInCU: 0xB015, offset: 0xB015, size: 0x8, addend: 0x0, symName: __ZNSt3__16vectorI10stock_dataNS_9allocatorIS1_EEED2B7v160006Ev, symObjAddr: 0x2D68, symBinAddr: 0x10000538C, symSize: 0x3C }
  - { offsetInCU: 0xB03E, offset: 0xB03E, size: 0x8, addend: 0x0, symName: __ZNSt3__16vectorI10stock_dataNS_9allocatorIS1_EEE16__destroy_vectorC1ERS4_, symObjAddr: 0x2DA4, symBinAddr: 0x1000053C8, symSize: 0x34 }
  - { offsetInCU: 0xB076, offset: 0xB076, size: 0x8, addend: 0x0, symName: __ZNSt3__16vectorI10stock_dataNS_9allocatorIS1_EEE16__destroy_vectorclB7v160006Ev, symObjAddr: 0x2DD8, symBinAddr: 0x1000053FC, symSize: 0x9C }
  - { offsetInCU: 0xB09B, offset: 0xB09B, size: 0x8, addend: 0x0, symName: __ZNSt3__16vectorI10stock_dataNS_9allocatorIS1_EEE16__destroy_vectorC2ERS4_, symObjAddr: 0x2E74, symBinAddr: 0x100005498, symSize: 0x20 }
  - { offsetInCU: 0xB0D3, offset: 0xB0D3, size: 0x8, addend: 0x0, symName: __ZNKSt3__16vectorI10stock_dataNS_9allocatorIS1_EEE17__annotate_deleteB7v160006Ev, symObjAddr: 0x2E94, symBinAddr: 0x1000054B8, symSize: 0xD4 }
  - { offsetInCU: 0xB0F8, offset: 0xB0F8, size: 0x8, addend: 0x0, symName: __ZNSt3__16vectorI10stock_dataNS_9allocatorIS1_EEE7__clearB7v160006Ev, symObjAddr: 0x2F78, symBinAddr: 0x10000559C, symSize: 0x28 }
  - { offsetInCU: 0xB11D, offset: 0xB11D, size: 0x8, addend: 0x0, symName: __ZNSt3__116allocator_traitsINS_9allocatorI10stock_dataEEE10deallocateB7v160006ERS3_PS2_m, symObjAddr: 0x2FA0, symBinAddr: 0x1000055C4, symSize: 0x34 }
  - { offsetInCU: 0xB15F, offset: 0xB15F, size: 0x8, addend: 0x0, symName: __ZNSt3__16vectorI10stock_dataNS_9allocatorIS1_EEE7__allocB7v160006Ev, symObjAddr: 0x2FD4, symBinAddr: 0x1000055F8, symSize: 0x28 }
  - { offsetInCU: 0xB184, offset: 0xB184, size: 0x8, addend: 0x0, symName: __ZNKSt3__16vectorI10stock_dataNS_9allocatorIS1_EEE8capacityB7v160006Ev, symObjAddr: 0x2FFC, symBinAddr: 0x100005620, symSize: 0x40 }
  - { offsetInCU: 0xB1A9, offset: 0xB1A9, size: 0x8, addend: 0x0, symName: __ZNKSt3__16vectorI10stock_dataNS_9allocatorIS1_EEE31__annotate_contiguous_containerB7v160006EPKvS6_S6_S6_, symObjAddr: 0x303C, symBinAddr: 0x100005660, symSize: 0x20 }
  - { offsetInCU: 0xB1FE, offset: 0xB1FE, size: 0x8, addend: 0x0, symName: __ZNKSt3__16vectorI10stock_dataNS_9allocatorIS1_EEE4dataB7v160006Ev, symObjAddr: 0x305C, symBinAddr: 0x100005680, symSize: 0x28 }
  - { offsetInCU: 0xB223, offset: 0xB223, size: 0x8, addend: 0x0, symName: __ZNSt3__16vectorI10stock_dataNS_9allocatorIS1_EEE22__base_destruct_at_endB7v160006EPS1_, symObjAddr: 0x3098, symBinAddr: 0x1000056BC, symSize: 0xA0 }
  - { offsetInCU: 0xB266, offset: 0xB266, size: 0x8, addend: 0x0, symName: __ZNSt3__116allocator_traitsINS_9allocatorI10stock_dataEEE7destroyB7v160006IS2_vEEvRS3_PT_, symObjAddr: 0x3138, symBinAddr: 0x10000575C, symSize: 0x2C }
  - { offsetInCU: 0xB2A3, offset: 0xB2A3, size: 0x8, addend: 0x0, symName: __ZNSt3__19allocatorI10stock_dataE7destroyB7v160006EPS1_, symObjAddr: 0x3164, symBinAddr: 0x100005788, symSize: 0x28 }
  - { offsetInCU: 0xB2D6, offset: 0xB2D6, size: 0x8, addend: 0x0, symName: __ZNSt3__19allocatorI10stock_dataE10deallocateB7v160006EPS1_m, symObjAddr: 0x318C, symBinAddr: 0x1000057B0, symSize: 0x74 }
  - { offsetInCU: 0xB317, offset: 0xB317, size: 0x8, addend: 0x0, symName: __ZNSt3__117__compressed_pairIP10stock_dataNS_9allocatorIS1_EEE6secondB7v160006Ev, symObjAddr: 0x327C, symBinAddr: 0x1000058A0, symSize: 0x24 }
  - { offsetInCU: 0xB33C, offset: 0xB33C, size: 0x8, addend: 0x0, symName: __ZNSt3__122__compressed_pair_elemINS_9allocatorI10stock_dataEELi1ELb1EE5__getB7v160006Ev, symObjAddr: 0x32A0, symBinAddr: 0x1000058C4, symSize: 0x14 }
  - { offsetInCU: 0xB361, offset: 0xB361, size: 0x8, addend: 0x0, symName: __ZNKSt3__16vectorI10stock_dataNS_9allocatorIS1_EEE9__end_capB7v160006Ev, symObjAddr: 0x32B4, symBinAddr: 0x1000058D8, symSize: 0x28 }
  - { offsetInCU: 0xB386, offset: 0xB386, size: 0x8, addend: 0x0, symName: __ZNKSt3__117__compressed_pairIP10stock_dataNS_9allocatorIS1_EEE5firstB7v160006Ev, symObjAddr: 0x32DC, symBinAddr: 0x100005900, symSize: 0x24 }
  - { offsetInCU: 0xB3AB, offset: 0xB3AB, size: 0x8, addend: 0x0, symName: __ZNKSt3__122__compressed_pair_elemIP10stock_dataLi0ELb0EE5__getB7v160006Ev, symObjAddr: 0x3300, symBinAddr: 0x100005924, symSize: 0x14 }
  - { offsetInCU: 0xB3D0, offset: 0xB3D0, size: 0x8, addend: 0x0, symName: __ZNSt3__112basic_stringIcNS_11char_traitsIcEENS_9allocatorIcEEEC2B7v160006Ev, symObjAddr: 0x3314, symBinAddr: 0x100005938, symSize: 0x44 }
  - { offsetInCU: 0xB3F9, offset: 0xB3F9, size: 0x8, addend: 0x0, symName: __ZNSt3__112basic_stringIcNS_11char_traitsIcEENS_9allocatorIcEEE14__default_initB7v160006Ev, symObjAddr: 0x3358, symBinAddr: 0x10000597C, symSize: 0xB0 }
  - { offsetInCU: 0xB44B, offset: 0xB44B, size: 0x8, addend: 0x0, symName: __ZNSt3__117__compressed_pairINS_12basic_stringIcNS_11char_traitsIcEENS_9allocatorIcEEE5__repES5_E5firstB7v160006Ev, symObjAddr: 0x3408, symBinAddr: 0x100005A2C, symSize: 0x24 }
  - { offsetInCU: 0xB470, offset: 0xB470, size: 0x8, addend: 0x0, symName: __ZNSt3__112basic_stringIcNS_11char_traitsIcEENS_9allocatorIcEEE11__recommendB7v160006Em, symObjAddr: 0x342C, symBinAddr: 0x100005A50, symSize: 0x9C }
  - { offsetInCU: 0xB4A3, offset: 0xB4A3, size: 0x8, addend: 0x0, symName: __ZNSt3__116allocator_traitsINS_9allocatorIcEEE8allocateB7v160006ERS2_m, symObjAddr: 0x34C8, symBinAddr: 0x100005AEC, symSize: 0x2C }
  - { offsetInCU: 0xB4D6, offset: 0xB4D6, size: 0x8, addend: 0x0, symName: __ZNSt3__112basic_stringIcNS_11char_traitsIcEENS_9allocatorIcEEE7__allocB7v160006Ev, symObjAddr: 0x34F4, symBinAddr: 0x100005B18, symSize: 0x24 }
  - { offsetInCU: 0xB4FB, offset: 0xB4FB, size: 0x8, addend: 0x0, symName: __ZNSt3__112basic_stringIcNS_11char_traitsIcEENS_9allocatorIcEEE16__begin_lifetimeB7v160006EPcm, symObjAddr: 0x3518, symBinAddr: 0x100005B3C, symSize: 0x14 }
  - { offsetInCU: 0xB52E, offset: 0xB52E, size: 0x8, addend: 0x0, symName: __ZNSt3__112basic_stringIcNS_11char_traitsIcEENS_9allocatorIcEEE18__set_long_pointerB7v160006EPc, symObjAddr: 0x352C, symBinAddr: 0x100005B50, symSize: 0x38 }
  - { offsetInCU: 0xB562, offset: 0xB562, size: 0x8, addend: 0x0, symName: __ZNSt3__112basic_stringIcNS_11char_traitsIcEENS_9allocatorIcEEE14__set_long_capB7v160006Em, symObjAddr: 0x3564, symBinAddr: 0x100005B88, symSize: 0x70 }
  - { offsetInCU: 0xB596, offset: 0xB596, size: 0x8, addend: 0x0, symName: __ZNSt3__112basic_stringIcNS_11char_traitsIcEENS_9allocatorIcEEE15__set_long_sizeB7v160006Em, symObjAddr: 0x35D4, symBinAddr: 0x100005BF8, symSize: 0x38 }
  - { offsetInCU: 0xB5CA, offset: 0xB5CA, size: 0x8, addend: 0x0, symName: __ZNSt3__122__compressed_pair_elemINS_12basic_stringIcNS_11char_traitsIcEENS_9allocatorIcEEE5__repELi0ELb0EE5__getB7v160006Ev, symObjAddr: 0x360C, symBinAddr: 0x100005C30, symSize: 0x14 }
  - { offsetInCU: 0xB5EF, offset: 0xB5EF, size: 0x8, addend: 0x0, symName: __ZNSt3__112basic_stringIcNS_11char_traitsIcEENS_9allocatorIcEEE10__align_itB7v160006ILm16EEEmm, symObjAddr: 0x3620, symBinAddr: 0x100005C44, symSize: 0x1C }
  - { offsetInCU: 0xB61D, offset: 0xB61D, size: 0x8, addend: 0x0, symName: __ZNSt3__19allocatorIcE8allocateB7v160006Em, symObjAddr: 0x363C, symBinAddr: 0x100005C60, symSize: 0x84 }
  - { offsetInCU: 0xB65A, offset: 0xB65A, size: 0x8, addend: 0x0, symName: __ZNSt3__116allocator_traitsINS_9allocatorIcEEE8max_sizeB7v160006IS2_vEEmRKS2_, symObjAddr: 0x36C0, symBinAddr: 0x100005CE4, symSize: 0x24 }
  - { offsetInCU: 0xB688, offset: 0xB688, size: 0x8, addend: 0x0, symName: __ZNKSt3__19allocatorIcE8max_sizeB7v160006Ev, symObjAddr: 0x3740, symBinAddr: 0x100005D64, symSize: 0x14 }
  - { offsetInCU: 0xB6AD, offset: 0xB6AD, size: 0x8, addend: 0x0, symName: __ZNSt3__117__compressed_pairINS_12basic_stringIcNS_11char_traitsIcEENS_9allocatorIcEEE5__repES5_E6secondB7v160006Ev, symObjAddr: 0x3778, symBinAddr: 0x100005D9C, symSize: 0x24 }
  - { offsetInCU: 0xB6D2, offset: 0xB6D2, size: 0x8, addend: 0x0, symName: __ZNSt3__122__compressed_pair_elemINS_9allocatorIcEELi1ELb1EE5__getB7v160006Ev, symObjAddr: 0x379C, symBinAddr: 0x100005DC0, symSize: 0x14 }
  - { offsetInCU: 0xB6F7, offset: 0xB6F7, size: 0x8, addend: 0x0, symName: __ZNSt3__112basic_stringIcNS_11char_traitsIcEENS_9allocatorIcEEE13__get_pointerB7v160006Ev, symObjAddr: 0x37B0, symBinAddr: 0x100005DD4, symSize: 0x54 }
  - { offsetInCU: 0xB71C, offset: 0xB71C, size: 0x8, addend: 0x0, symName: __ZNSt3__112basic_stringIcNS_11char_traitsIcEENS_9allocatorIcEEE18__get_long_pointerB7v160006Ev, symObjAddr: 0x3804, symBinAddr: 0x100005E28, symSize: 0x28 }
  - { offsetInCU: 0xB741, offset: 0xB741, size: 0x8, addend: 0x0, symName: __ZNSt3__112basic_stringIcNS_11char_traitsIcEENS_9allocatorIcEEE19__get_short_pointerB7v160006Ev, symObjAddr: 0x382C, symBinAddr: 0x100005E50, symSize: 0x28 }
  - { offsetInCU: 0xB766, offset: 0xB766, size: 0x8, addend: 0x0, symName: __ZNSt3__114pointer_traitsIPcE10pointer_toB7v160006ERc, symObjAddr: 0x3854, symBinAddr: 0x100005E78, symSize: 0x14 }
  - { offsetInCU: 0xB789, offset: 0xB789, size: 0x8, addend: 0x0, symName: __ZNSt3__111char_traitsIcE7compareEPKcS3_m, symObjAddr: 0x3868, symBinAddr: 0x100005E8C, symSize: 0x80 }
  - { offsetInCU: 0xB7C8, offset: 0xB7C8, size: 0x8, addend: 0x0, symName: __ZNSt3__16vectorI10stock_dataNS_9allocatorIS1_EEE9__end_capB7v160006Ev, symObjAddr: 0x391C, symBinAddr: 0x100005F40, symSize: 0x28 }
  - { offsetInCU: 0xB7ED, offset: 0xB7ED, size: 0x8, addend: 0x0, symName: __ZNSt3__16vectorI10stock_dataNS_9allocatorIS1_EEE22__construct_one_at_endB7v160006IJRKS1_EEEvDpOT_, symObjAddr: 0x3944, symBinAddr: 0x100005F68, symSize: 0x98 }
  - { offsetInCU: 0xB83A, offset: 0xB83A, size: 0x8, addend: 0x0, symName: __ZNSt3__16vectorI10stock_dataNS_9allocatorIS1_EEE21__push_back_slow_pathIRKS1_EEvOT_, symObjAddr: 0x39DC, symBinAddr: 0x100006000, symSize: 0xE0 }
  - { offsetInCU: 0xB897, offset: 0xB897, size: 0x8, addend: 0x0, symName: __ZNSt3__117__compressed_pairIP10stock_dataNS_9allocatorIS1_EEE5firstB7v160006Ev, symObjAddr: 0x3ABC, symBinAddr: 0x1000060E0, symSize: 0x24 }
  - { offsetInCU: 0xB8BC, offset: 0xB8BC, size: 0x8, addend: 0x0, symName: __ZNSt3__122__compressed_pair_elemIP10stock_dataLi0ELb0EE5__getB7v160006Ev, symObjAddr: 0x3AE0, symBinAddr: 0x100006104, symSize: 0x14 }
  - { offsetInCU: 0xB8FA, offset: 0xB8FA, size: 0x8, addend: 0x0, symName: __ZNSt3__16vectorI10stock_dataNS_9allocatorIS1_EEE21_ConstructTransactionC1B7v160006ERS4_m, symObjAddr: 0x3AF4, symBinAddr: 0x100006118, symSize: 0x3C }
  - { offsetInCU: 0xB941, offset: 0xB941, size: 0x8, addend: 0x0, symName: __ZNSt3__116allocator_traitsINS_9allocatorI10stock_dataEEE9constructB7v160006IS2_JRKS2_EvEEvRS3_PT_DpOT0_, symObjAddr: 0x3B30, symBinAddr: 0x100006154, symSize: 0x34 }
  - { offsetInCU: 0xB998, offset: 0xB998, size: 0x8, addend: 0x0, symName: __ZNSt3__16vectorI10stock_dataNS_9allocatorIS1_EEE21_ConstructTransactionD1B7v160006Ev, symObjAddr: 0x3B64, symBinAddr: 0x100006188, symSize: 0x2C }
  - { offsetInCU: 0xB9C1, offset: 0xB9C1, size: 0x8, addend: 0x0, symName: __ZNSt3__16vectorI10stock_dataNS_9allocatorIS1_EEE21_ConstructTransactionC2B7v160006ERS4_m, symObjAddr: 0x3B90, symBinAddr: 0x1000061B4, symSize: 0x4C }
  - { offsetInCU: 0xBA08, offset: 0xBA08, size: 0x8, addend: 0x0, symName: __ZNSt3__19allocatorI10stock_dataE9constructB7v160006IS1_JRKS1_EEEvPT_DpOT0_, symObjAddr: 0x3BDC, symBinAddr: 0x100006200, symSize: 0x30 }
  - { offsetInCU: 0xBA5D, offset: 0xBA5D, size: 0x8, addend: 0x0, symName: __ZN10stock_dataC1ERKS_, symObjAddr: 0x3C0C, symBinAddr: 0x100006230, symSize: 0x34 }
  - { offsetInCU: 0xBA91, offset: 0xBA91, size: 0x8, addend: 0x0, symName: __ZN10stock_dataC2ERKS_, symObjAddr: 0x3C40, symBinAddr: 0x100006264, symSize: 0xC8 }
  - { offsetInCU: 0xBAC5, offset: 0xBAC5, size: 0x8, addend: 0x0, symName: __ZNSt3__16vectorI10stock_dataNS_9allocatorIS1_EEE21_ConstructTransactionD2B7v160006Ev, symObjAddr: 0x3D08, symBinAddr: 0x10000632C, symSize: 0x20 }
  - { offsetInCU: 0xBAED, offset: 0xBAED, size: 0x8, addend: 0x0, symName: __ZNKSt3__16vectorI10stock_dataNS_9allocatorIS1_EEE11__recommendB7v160006Em, symObjAddr: 0x3D28, symBinAddr: 0x10000634C, symSize: 0xB4 }
  - { offsetInCU: 0xBB41, offset: 0xBB41, size: 0x8, addend: 0x0, symName: __ZNSt3__114__split_bufferI10stock_dataRNS_9allocatorIS1_EEEC1EmmS4_, symObjAddr: 0x3DDC, symBinAddr: 0x100006400, symSize: 0x44 }
  - { offsetInCU: 0xBB96, offset: 0xBB96, size: 0x8, addend: 0x0, symName: __ZNSt3__114__split_bufferI10stock_dataRNS_9allocatorIS1_EEED1Ev, symObjAddr: 0x3F38, symBinAddr: 0x10000655C, symSize: 0x2C }
  - { offsetInCU: 0xBBC0, offset: 0xBBC0, size: 0x8, addend: 0x0, symName: __ZNKSt3__16vectorI10stock_dataNS_9allocatorIS1_EEE8max_sizeEv, symObjAddr: 0x3F64, symBinAddr: 0x100006588, symSize: 0x74 }
  - { offsetInCU: 0xBBE7, offset: 0xBBE7, size: 0x8, addend: 0x0, symName: __ZNKSt3__16vectorI10stock_dataNS_9allocatorIS1_EEE20__throw_length_errorB7v160006Ev, symObjAddr: 0x3FD8, symBinAddr: 0x1000065FC, symSize: 0x1C }
  - { offsetInCU: 0xBC16, offset: 0xBC16, size: 0x8, addend: 0x0, symName: __ZNSt3__116allocator_traitsINS_9allocatorI10stock_dataEEE8max_sizeB7v160006IS3_vEEmRKS3_, symObjAddr: 0x404C, symBinAddr: 0x100006670, symSize: 0x24 }
  - { offsetInCU: 0xBC44, offset: 0xBC44, size: 0x8, addend: 0x0, symName: __ZNKSt3__16vectorI10stock_dataNS_9allocatorIS1_EEE7__allocB7v160006Ev, symObjAddr: 0x4070, symBinAddr: 0x100006694, symSize: 0x28 }
  - { offsetInCU: 0xBC69, offset: 0xBC69, size: 0x8, addend: 0x0, symName: __ZNSt3__114numeric_limitsIlE3maxB7v160006Ev, symObjAddr: 0x4098, symBinAddr: 0x1000066BC, symSize: 0x14 }
  - { offsetInCU: 0xBC91, offset: 0xBC91, size: 0x8, addend: 0x0, symName: __ZNKSt3__16__lessImmEclB7v160006ERKmS3_, symObjAddr: 0x4100, symBinAddr: 0x100006724, symSize: 0x34 }
  - { offsetInCU: 0xBCD2, offset: 0xBCD2, size: 0x8, addend: 0x0, symName: __ZNKSt3__19allocatorI10stock_dataE8max_sizeB7v160006Ev, symObjAddr: 0x4134, symBinAddr: 0x100006758, symSize: 0x20 }
  - { offsetInCU: 0xBCF7, offset: 0xBCF7, size: 0x8, addend: 0x0, symName: __ZNKSt3__117__compressed_pairIP10stock_dataNS_9allocatorIS1_EEE6secondB7v160006Ev, symObjAddr: 0x4154, symBinAddr: 0x100006778, symSize: 0x24 }
  - { offsetInCU: 0xBD1C, offset: 0xBD1C, size: 0x8, addend: 0x0, symName: __ZNKSt3__122__compressed_pair_elemINS_9allocatorI10stock_dataEELi1ELb1EE5__getB7v160006Ev, symObjAddr: 0x4178, symBinAddr: 0x10000679C, symSize: 0x14 }
  - { offsetInCU: 0xBD41, offset: 0xBD41, size: 0x8, addend: 0x0, symName: __ZNSt3__123__libcpp_numeric_limitsIlLb1EE3maxB7v160006Ev, symObjAddr: 0x418C, symBinAddr: 0x1000067B0, symSize: 0x8 }
  - { offsetInCU: 0xBD55, offset: 0xBD55, size: 0x8, addend: 0x0, symName: __ZNSt12length_errorC1B7v160006EPKc, symObjAddr: 0x41F8, symBinAddr: 0x10000681C, symSize: 0x34 }
  - { offsetInCU: 0xBD8C, offset: 0xBD8C, size: 0x8, addend: 0x0, symName: __ZNSt12length_errorC2B7v160006EPKc, symObjAddr: 0x422C, symBinAddr: 0x100006850, symSize: 0x4C }
  - { offsetInCU: 0xBDC3, offset: 0xBDC3, size: 0x8, addend: 0x0, symName: __ZNSt3__114__split_bufferI10stock_dataRNS_9allocatorIS1_EEEC2EmmS4_, symObjAddr: 0x42CC, symBinAddr: 0x1000068F0, symSize: 0xE0 }
  - { offsetInCU: 0xBE36, offset: 0xBE36, size: 0x8, addend: 0x0, symName: __ZNSt3__117__compressed_pairIP10stock_dataRNS_9allocatorIS1_EEEC1B7v160006IDnS5_EEOT_OT0_, symObjAddr: 0x43AC, symBinAddr: 0x1000069D0, symSize: 0x3C }
  - { offsetInCU: 0xBE8D, offset: 0xBE8D, size: 0x8, addend: 0x0, symName: __ZNSt3__114__split_bufferI10stock_dataRNS_9allocatorIS1_EEE7__allocB7v160006Ev, symObjAddr: 0x4428, symBinAddr: 0x100006A4C, symSize: 0x28 }
  - { offsetInCU: 0xBEB2, offset: 0xBEB2, size: 0x8, addend: 0x0, symName: __ZNSt3__114__split_bufferI10stock_dataRNS_9allocatorIS1_EEE9__end_capB7v160006Ev, symObjAddr: 0x4450, symBinAddr: 0x100006A74, symSize: 0x28 }
  - { offsetInCU: 0xBED7, offset: 0xBED7, size: 0x8, addend: 0x0, symName: __ZNSt3__117__compressed_pairIP10stock_dataRNS_9allocatorIS1_EEEC2B7v160006IDnS5_EEOT_OT0_, symObjAddr: 0x4478, symBinAddr: 0x100006A9C, symSize: 0x48 }
  - { offsetInCU: 0xBF2E, offset: 0xBF2E, size: 0x8, addend: 0x0, symName: __ZNSt3__122__compressed_pair_elemIRNS_9allocatorI10stock_dataEELi1ELb0EEC2B7v160006IS4_vEEOT_, symObjAddr: 0x44C0, symBinAddr: 0x100006AE4, symSize: 0x20 }
  - { offsetInCU: 0xBF6F, offset: 0xBF6F, size: 0x8, addend: 0x0, symName: __ZNSt3__19allocatorI10stock_dataE8allocateB7v160006Em, symObjAddr: 0x44E0, symBinAddr: 0x100006B04, symSize: 0x8C }
  - { offsetInCU: 0xBFA2, offset: 0xBFA2, size: 0x8, addend: 0x0, symName: __ZNSt3__117__compressed_pairIP10stock_dataRNS_9allocatorIS1_EEE6secondB7v160006Ev, symObjAddr: 0x456C, symBinAddr: 0x100006B90, symSize: 0x28 }
  - { offsetInCU: 0xBFC7, offset: 0xBFC7, size: 0x8, addend: 0x0, symName: __ZNSt3__122__compressed_pair_elemIRNS_9allocatorI10stock_dataEELi1ELb0EE5__getB7v160006Ev, symObjAddr: 0x4594, symBinAddr: 0x100006BB8, symSize: 0x18 }
  - { offsetInCU: 0xBFEC, offset: 0xBFEC, size: 0x8, addend: 0x0, symName: __ZNSt3__117__compressed_pairIP10stock_dataRNS_9allocatorIS1_EEE5firstB7v160006Ev, symObjAddr: 0x45AC, symBinAddr: 0x100006BD0, symSize: 0x24 }
  - { offsetInCU: 0xC011, offset: 0xC011, size: 0x8, addend: 0x0, symName: __ZNSt3__116reverse_iteratorIP10stock_dataEC1B7v160006ES2_, symObjAddr: 0x4704, symBinAddr: 0x100006D28, symSize: 0x34 }
  - { offsetInCU: 0xC048, offset: 0xC048, size: 0x8, addend: 0x0, symName: __ZNKSt3__116reverse_iteratorIP10stock_dataE4baseB7v160006Ev, symObjAddr: 0x4738, symBinAddr: 0x100006D5C, symSize: 0x18 }
  - { offsetInCU: 0xC06D, offset: 0xC06D, size: 0x8, addend: 0x0, symName: __ZNKSt3__16vectorI10stock_dataNS_9allocatorIS1_EEE14__annotate_newB7v160006Em, symObjAddr: 0x478C, symBinAddr: 0x100006DB0, symSize: 0xC8 }
  - { offsetInCU: 0xC0A1, offset: 0xC0A1, size: 0x8, addend: 0x0, symName: __ZNSt3__129_AllocatorDestroyRangeReverseINS_9allocatorI10stock_dataEENS_16reverse_iteratorIPS2_EEEC1B7v160006ERS3_RS6_S9_, symObjAddr: 0x48B0, symBinAddr: 0x100006ED4, symSize: 0x44 }
  - { offsetInCU: 0xC0F7, offset: 0xC0F7, size: 0x8, addend: 0x0, symName: __ZNKSt3__116reverse_iteratorIP10stock_dataEdeB7v160006Ev, symObjAddr: 0x4960, symBinAddr: 0x100006F84, symSize: 0x28 }
  - { offsetInCU: 0xC12A, offset: 0xC12A, size: 0x8, addend: 0x0, symName: __ZNSt3__116reverse_iteratorIP10stock_dataEppB7v160006Ev, symObjAddr: 0x4988, symBinAddr: 0x100006FAC, symSize: 0x20 }
  - { offsetInCU: 0xC14F, offset: 0xC14F, size: 0x8, addend: 0x0, symName: __ZNSt3__128__exception_guard_exceptionsINS_29_AllocatorDestroyRangeReverseINS_9allocatorI10stock_dataEENS_16reverse_iteratorIPS3_EEEEE10__completeB7v160006Ev, symObjAddr: 0x49A8, symBinAddr: 0x100006FCC, symSize: 0x1C }
  - { offsetInCU: 0xC174, offset: 0xC174, size: 0x8, addend: 0x0, symName: __ZNSt3__128__exception_guard_exceptionsINS_29_AllocatorDestroyRangeReverseINS_9allocatorI10stock_dataEENS_16reverse_iteratorIPS3_EEEEED1B7v160006Ev, symObjAddr: 0x49C4, symBinAddr: 0x100006FE8, symSize: 0x2C }
  - { offsetInCU: 0xC19D, offset: 0xC19D, size: 0x8, addend: 0x0, symName: __ZNSt3__128__exception_guard_exceptionsINS_29_AllocatorDestroyRangeReverseINS_9allocatorI10stock_dataEENS_16reverse_iteratorIPS3_EEEEEC1B7v160006ES8_, symObjAddr: 0x49F0, symBinAddr: 0x100007014, symSize: 0x34 }
  - { offsetInCU: 0xC1D5, offset: 0xC1D5, size: 0x8, addend: 0x0, symName: __ZNSt3__128__exception_guard_exceptionsINS_29_AllocatorDestroyRangeReverseINS_9allocatorI10stock_dataEENS_16reverse_iteratorIPS3_EEEEEC2B7v160006ES8_, symObjAddr: 0x4A24, symBinAddr: 0x100007048, symSize: 0x30 }
  - { offsetInCU: 0xC20D, offset: 0xC20D, size: 0x8, addend: 0x0, symName: __ZNSt3__129_AllocatorDestroyRangeReverseINS_9allocatorI10stock_dataEENS_16reverse_iteratorIPS2_EEEC2B7v160006ERS3_RS6_S9_, symObjAddr: 0x4A54, symBinAddr: 0x100007078, symSize: 0x38 }
  - { offsetInCU: 0xC268, offset: 0xC268, size: 0x8, addend: 0x0, symName: __ZNSt3__119__to_address_helperINS_16reverse_iteratorIP10stock_dataEEvE6__callB7v160006ERKS4_, symObjAddr: 0x4A8C, symBinAddr: 0x1000070B0, symSize: 0x4C }
  - { offsetInCU: 0xC28B, offset: 0xC28B, size: 0x8, addend: 0x0, symName: __ZNKSt3__116reverse_iteratorIP10stock_dataEptB7v160006Ev, symObjAddr: 0x4AD8, symBinAddr: 0x1000070FC, symSize: 0x24 }
  - { offsetInCU: 0xC2B0, offset: 0xC2B0, size: 0x8, addend: 0x0, symName: __ZNSt3__128__exception_guard_exceptionsINS_29_AllocatorDestroyRangeReverseINS_9allocatorI10stock_dataEENS_16reverse_iteratorIPS3_EEEEED2B7v160006Ev, symObjAddr: 0x4AFC, symBinAddr: 0x100007120, symSize: 0x48 }
  - { offsetInCU: 0xC2D9, offset: 0xC2D9, size: 0x8, addend: 0x0, symName: __ZNKSt3__129_AllocatorDestroyRangeReverseINS_9allocatorI10stock_dataEENS_16reverse_iteratorIPS2_EEEclB7v160006Ev, symObjAddr: 0x4B44, symBinAddr: 0x100007168, symSize: 0xB4 }
  - { offsetInCU: 0xC2FF, offset: 0xC2FF, size: 0x8, addend: 0x0, symName: __ZNSt3__116reverse_iteratorINS0_IP10stock_dataEEEC1B7v160006ES3_, symObjAddr: 0x4C68, symBinAddr: 0x10000728C, symSize: 0x3C }
  - { offsetInCU: 0xC336, offset: 0xC336, size: 0x8, addend: 0x0, symName: __ZNSt3__116reverse_iteratorINS0_IP10stock_dataEEEppB7v160006Ev, symObjAddr: 0x4D28, symBinAddr: 0x10000734C, symSize: 0x30 }
  - { offsetInCU: 0xC35B, offset: 0xC35B, size: 0x8, addend: 0x0, symName: __ZNKSt3__116reverse_iteratorINS0_IP10stock_dataEEE4baseB7v160006Ev, symObjAddr: 0x4D58, symBinAddr: 0x10000737C, symSize: 0x24 }
  - { offsetInCU: 0xC385, offset: 0xC385, size: 0x8, addend: 0x0, symName: __ZNSt3__119__to_address_helperINS_16reverse_iteratorINS1_IP10stock_dataEEEEvE6__callB7v160006ERKS5_, symObjAddr: 0x4D7C, symBinAddr: 0x1000073A0, symSize: 0x4C }
  - { offsetInCU: 0xC3A8, offset: 0xC3A8, size: 0x8, addend: 0x0, symName: __ZNKSt3__116reverse_iteratorINS0_IP10stock_dataEEEptB7v160006Ev, symObjAddr: 0x4DC8, symBinAddr: 0x1000073EC, symSize: 0x24 }
  - { offsetInCU: 0xC3CD, offset: 0xC3CD, size: 0x8, addend: 0x0, symName: __ZNKSt3__116reverse_iteratorINS0_IP10stock_dataEEEdeB7v160006Ev, symObjAddr: 0x4DEC, symBinAddr: 0x100007410, symSize: 0x34 }
  - { offsetInCU: 0xC400, offset: 0xC400, size: 0x8, addend: 0x0, symName: __ZNSt3__116reverse_iteratorIP10stock_dataEmmB7v160006Ev, symObjAddr: 0x4E20, symBinAddr: 0x100007444, symSize: 0x20 }
  - { offsetInCU: 0xC425, offset: 0xC425, size: 0x8, addend: 0x0, symName: __ZNSt3__116reverse_iteratorINS0_IP10stock_dataEEEC2B7v160006ES3_, symObjAddr: 0x4E40, symBinAddr: 0x100007464, symSize: 0x2C }
  - { offsetInCU: 0xC45C, offset: 0xC45C, size: 0x8, addend: 0x0, symName: __ZNSt3__116reverse_iteratorIP10stock_dataEC2B7v160006ES2_, symObjAddr: 0x4E6C, symBinAddr: 0x100007490, symSize: 0x28 }
  - { offsetInCU: 0xC493, offset: 0xC493, size: 0x8, addend: 0x0, symName: __ZNSt3__114__split_bufferI10stock_dataRNS_9allocatorIS1_EEED2Ev, symObjAddr: 0x4E94, symBinAddr: 0x1000074B8, symSize: 0x80 }
  - { offsetInCU: 0xC4BE, offset: 0xC4BE, size: 0x8, addend: 0x0, symName: __ZNSt3__114__split_bufferI10stock_dataRNS_9allocatorIS1_EEE5clearB7v160006Ev, symObjAddr: 0x4F14, symBinAddr: 0x100007538, symSize: 0x28 }
  - { offsetInCU: 0xC4E3, offset: 0xC4E3, size: 0x8, addend: 0x0, symName: __ZNKSt3__114__split_bufferI10stock_dataRNS_9allocatorIS1_EEE8capacityB7v160006Ev, symObjAddr: 0x4F3C, symBinAddr: 0x100007560, symSize: 0x40 }
  - { offsetInCU: 0xC508, offset: 0xC508, size: 0x8, addend: 0x0, symName: __ZNSt3__114__split_bufferI10stock_dataRNS_9allocatorIS1_EEE17__destruct_at_endB7v160006EPS1_, symObjAddr: 0x4F7C, symBinAddr: 0x1000075A0, symSize: 0x2C }
  - { offsetInCU: 0xC53A, offset: 0xC53A, size: 0x8, addend: 0x0, symName: __ZNSt3__114__split_bufferI10stock_dataRNS_9allocatorIS1_EEE17__destruct_at_endB7v160006EPS1_NS_17integral_constantIbLb0EEE, symObjAddr: 0x4FA8, symBinAddr: 0x1000075CC, symSize: 0x94 }
  - { offsetInCU: 0xC57A, offset: 0xC57A, size: 0x8, addend: 0x0, symName: __ZNKSt3__114__split_bufferI10stock_dataRNS_9allocatorIS1_EEE9__end_capB7v160006Ev, symObjAddr: 0x503C, symBinAddr: 0x100007660, symSize: 0x28 }
  - { offsetInCU: 0xC59F, offset: 0xC59F, size: 0x8, addend: 0x0, symName: __ZNKSt3__117__compressed_pairIP10stock_dataRNS_9allocatorIS1_EEE5firstB7v160006Ev, symObjAddr: 0x5064, symBinAddr: 0x100007688, symSize: 0x24 }
...
